target datalayout = "e-m:e-p270:32:32-p271:32:32-p272:64:64-i64:64-i128:128-f80:128-n8:16:32:64-S128"
target triple = "x86_64-pc-linux-gnu"

%struct.lua_TValue = type { %union.Value, [1 x i32], i32 }
%union.Value = type { ptr }
%struct.LuaTable = type { i8, i8, i8, i8, i8, i8, i8, i8, i32, %union.anon, ptr, ptr, ptr, ptr }
%union.anon = type { i32 }
%struct.LuaNode = type { %struct.lua_TValue, %struct.TKey }
%struct.TKey = type { %union.Value, [1 x i32], i32 }
%struct.lua_State = type { i8, i8, i8, i8, i8, i8, i8, ptr, ptr, ptr, ptr, ptr, ptr, ptr, ptr, i32, i32, i16, i16, i32, ptr, ptr, ptr, ptr, ptr }
%struct.global_State = type { %struct.stringtable, ptr, ptr, i8, i8, ptr, ptr, ptr, i64, i64, i32, i32, i32, [40 x ptr], [40 x ptr], ptr, ptr, ptr, [256 x i64], ptr, %struct.UpVal, [11 x ptr], [11 x ptr], [21 x ptr], %struct.lua_TValue, %struct.lua_TValue, i32, ptr, i64, [4 x i64], %struct.lua_Callbacks, %struct.lua_ExecutionCallbacks, [128 x ptr], [128 x ptr], [128 x ptr], %struct.GCStats }
%struct.stringtable = type { ptr, i32, i32 }
%struct.UpVal = type { i8, i8, i8, i8, ptr, %union.anon.0 }
%union.anon.0 = type { %struct.anon }
%struct.anon = type { ptr, ptr, ptr }
%struct.lua_Callbacks = type { ptr, ptr, ptr, ptr, ptr, ptr, ptr, ptr, ptr, ptr }
%struct.lua_ExecutionCallbacks = type { ptr, ptr, ptr, ptr, ptr, ptr, ptr }
%struct.GCStats = type { [32 x i32], i32, i32, i64, i64, i64, double, double, double }

@luaH_dummynode = dso_local constant { %struct.lua_TValue, { %union.Value, [1 x i32], i8, i8, i8, i8 } } zeroinitializer, align 8
@.str.4 = private unnamed_addr constant [15 x i8] c"table overflow\00", align 1

; Function Attrs: mustprogress uwtable
define internal void @_ZL13setnodevectorP9lua_StateP8LuaTablei(ptr noundef %0, ptr noundef %1, i32 noundef %2) #0 {
  %4 = alloca ptr, align 8
  %5 = alloca ptr, align 8
  %6 = alloca i32, align 4
  %7 = alloca i32, align 4
  %8 = alloca i32, align 4
  %9 = alloca ptr, align 8
  store ptr %0, ptr %4, align 8, !tbaa !4
  store ptr %1, ptr %5, align 8, !tbaa !9
  store i32 %2, ptr %6, align 4, !tbaa !13
  call void @llvm.lifetime.start.p0(i64 4, ptr %7) #7
  %10 = load i32, ptr %6, align 4, !tbaa !13
  %11 = icmp eq i32 %10, 0
  br i1 %11, label %12, label %15

12:                                               ; preds = %3
  %13 = load ptr, ptr %5, align 8, !tbaa !9
  %14 = getelementptr inbounds nuw %struct.LuaTable, ptr %13, i32 0, i32 12
  store ptr @luaH_dummynode, ptr %14, align 8, !tbaa !27
  store i32 0, ptr %7, align 4, !tbaa !13
  br label %76

15:                                               ; preds = %3
  call void @llvm.lifetime.start.p0(i64 4, ptr %8) #7
  %16 = load i32, ptr %6, align 4, !tbaa !13
  %17 = sub nsw i32 %16, 1
  %18 = call noundef i32 @_Z9luaO_log2j(i32 noundef %17)
  %19 = add nsw i32 %18, 1
  store i32 %19, ptr %7, align 4, !tbaa !13
  %20 = load i32, ptr %7, align 4, !tbaa !13
  %21 = icmp sgt i32 %20, 26
  br i1 %21, label %22, label %24

22:                                               ; preds = %15
  %23 = load ptr, ptr %4, align 8, !tbaa !4
  call void (ptr, ptr, ...) @_Z14luaG_runerrorLP9lua_StatePKcz(ptr noundef %23, ptr noundef @.str.4) #8
  unreachable

24:                                               ; preds = %15
  %25 = load i32, ptr %7, align 4, !tbaa !13
  %26 = shl i32 1, %25
  store i32 %26, ptr %6, align 4, !tbaa !13
  %27 = load ptr, ptr %4, align 8, !tbaa !4
  %28 = load i32, ptr %6, align 4, !tbaa !13
  %29 = sext i32 %28 to i64
  %30 = icmp ule i64 %29, 576460752303423487
  br i1 %30, label %31, label %35

31:                                               ; preds = %24
  %32 = load i32, ptr %6, align 4, !tbaa !13
  %33 = sext i32 %32 to i64
  %34 = mul i64 %33, 32
  br label %38

35:                                               ; preds = %24
  %36 = load ptr, ptr %4, align 8, !tbaa !4
  call void @_Z11luaM_toobigP9lua_State(ptr noundef %36) #8
  unreachable

37:                                               ; No predecessors!
  br label %38

38:                                               ; preds = %37, %31
  %39 = phi i64 [ %34, %31 ], [ -1, %37 ]
  %40 = load ptr, ptr %5, align 8, !tbaa !9
  %41 = getelementptr inbounds nuw %struct.LuaTable, ptr %40, i32 0, i32 2
  %42 = load i8, ptr %41, align 2, !tbaa !41
  %43 = call noundef ptr @_Z9luaM_new_P9lua_Statemh(ptr noundef %27, i64 noundef %39, i8 noundef zeroext %42)
  %44 = load ptr, ptr %5, align 8, !tbaa !9
  %45 = getelementptr inbounds nuw %struct.LuaTable, ptr %44, i32 0, i32 12
  store ptr %43, ptr %45, align 8, !tbaa !27
  store i32 0, ptr %8, align 4, !tbaa !13
  br label %46

46:                                               ; preds = %72, %38
  %47 = load i32, ptr %8, align 4, !tbaa !13
  %48 = load i32, ptr %6, align 4, !tbaa !13
  %49 = icmp slt i32 %47, %48
  br i1 %49, label %50, label %75

50:                                               ; preds = %46
  call void @llvm.lifetime.start.p0(i64 8, ptr %9) #7
  %51 = load ptr, ptr %5, align 8, !tbaa !9
  %52 = getelementptr inbounds nuw %struct.LuaTable, ptr %51, i32 0, i32 12
  %53 = load ptr, ptr %52, align 8, !tbaa !27
  %54 = load i32, ptr %8, align 4, !tbaa !13
  %55 = sext i32 %54 to i64
  %56 = getelementptr inbounds %struct.LuaNode, ptr %53, i64 %55
  store ptr %56, ptr %9, align 8, !tbaa !31
  %57 = load ptr, ptr %9, align 8, !tbaa !31
  %58 = getelementptr inbounds nuw %struct.LuaNode, ptr %57, i32 0, i32 1
  %59 = getelementptr inbounds nuw %struct.TKey, ptr %58, i32 0, i32 2
  %60 = load i32, ptr %59, align 4
  %61 = and i32 %60, 15
  %62 = or i32 %61, 0
  store i32 %62, ptr %59, align 4
  %63 = load ptr, ptr %9, align 8, !tbaa !31
  %64 = getelementptr inbounds nuw %struct.LuaNode, ptr %63, i32 0, i32 1
  %65 = getelementptr inbounds nuw %struct.TKey, ptr %64, i32 0, i32 2
  %66 = load i32, ptr %65, align 4
  %67 = and i32 %66, -16
  %68 = or i32 %67, 0
  store i32 %68, ptr %65, align 4
  %69 = load ptr, ptr %9, align 8, !tbaa !31
  %70 = getelementptr inbounds nuw %struct.LuaNode, ptr %69, i32 0, i32 0
  %71 = getelementptr inbounds nuw %struct.lua_TValue, ptr %70, i32 0, i32 2
  store i32 0, ptr %71, align 4, !tbaa !28
  call void @llvm.lifetime.end.p0(i64 8, ptr %9) #7
  br label %72

72:                                               ; preds = %50
  %73 = load i32, ptr %8, align 4, !tbaa !13
  %74 = add nsw i32 %73, 1
  store i32 %74, ptr %8, align 4, !tbaa !13
  br label %46, !llvm.loop !72

75:                                               ; preds = %46
  call void @llvm.lifetime.end.p0(i64 4, ptr %8) #7
  br label %76

76:                                               ; preds = %75, %12
  %77 = load i32, ptr %7, align 4, !tbaa !13
  %78 = trunc i32 %77 to i8
  %79 = load ptr, ptr %5, align 8, !tbaa !9
  %80 = getelementptr inbounds nuw %struct.LuaTable, ptr %79, i32 0, i32 6
  store i8 %78, ptr %80, align 2, !tbaa !26
  %81 = load i32, ptr %7, align 4, !tbaa !13
  %82 = shl i32 1, %81
  %83 = sub nsw i32 %82, 1
  %84 = trunc i32 %83 to i8
  %85 = load ptr, ptr %5, align 8, !tbaa !9
  %86 = getelementptr inbounds nuw %struct.LuaTable, ptr %85, i32 0, i32 7
  store i8 %84, ptr %86, align 1, !tbaa !70
  %87 = load i32, ptr %6, align 4, !tbaa !13
  %88 = load ptr, ptr %5, align 8, !tbaa !9
  %89 = getelementptr inbounds nuw %struct.LuaTable, ptr %88, i32 0, i32 9
  store i32 %87, ptr %89, align 4, !tbaa !22
  call void @llvm.lifetime.end.p0(i64 4, ptr %7) #7
  ret void
}

; Function Attrs: mustprogress uwtable
define internal void @_ZL14setarrayvectorP9lua_StateP8LuaTablei(ptr noundef %0, ptr noundef %1, i32 noundef %2) #0 {
  %4 = alloca ptr, align 8
  %5 = alloca ptr, align 8
  %6 = alloca i32, align 4
  %7 = alloca ptr, align 8
  %8 = alloca i32, align 4
  store ptr %0, ptr %4, align 8, !tbaa !4
  store ptr %1, ptr %5, align 8, !tbaa !9
  store i32 %2, ptr %6, align 4, !tbaa !13
  %9 = load i32, ptr %6, align 4, !tbaa !13
  %10 = icmp sgt i32 %9, 67108864
  br i1 %10, label %11, label %13

11:                                               ; preds = %3
  %12 = load ptr, ptr %4, align 8, !tbaa !4
  call void (ptr, ptr, ...) @_Z14luaG_runerrorLP9lua_StatePKcz(ptr noundef %12, ptr noundef @.str.4) #8
  unreachable

13:                                               ; preds = %3
  %14 = load ptr, ptr %4, align 8, !tbaa !4
  %15 = load ptr, ptr %5, align 8, !tbaa !9
  %16 = getelementptr inbounds nuw %struct.LuaTable, ptr %15, i32 0, i32 11
  %17 = load ptr, ptr %16, align 8, !tbaa !19
  %18 = load ptr, ptr %5, align 8, !tbaa !9
  %19 = getelementptr inbounds nuw %struct.LuaTable, ptr %18, i32 0, i32 8
  %20 = load i32, ptr %19, align 8, !tbaa !15
  %21 = sext i32 %20 to i64
  %22 = mul i64 %21, 16
  %23 = load i32, ptr %6, align 4, !tbaa !13
  %24 = sext i32 %23 to i64
  %25 = icmp ule i64 %24, 1152921504606846975
  br i1 %25, label %26, label %30

26:                                               ; preds = %13
  %27 = load i32, ptr %6, align 4, !tbaa !13
  %28 = sext i32 %27 to i64
  %29 = mul i64 %28, 16
  br label %33

30:                                               ; preds = %13
  %31 = load ptr, ptr %4, align 8, !tbaa !4
  call void @_Z11luaM_toobigP9lua_State(ptr noundef %31) #8
  unreachable

32:                                               ; No predecessors!
  br label %33

33:                                               ; preds = %32, %26
  %34 = phi i64 [ %29, %26 ], [ -1, %32 ]
  %35 = load ptr, ptr %5, align 8, !tbaa !9
  %36 = getelementptr inbounds nuw %struct.LuaTable, ptr %35, i32 0, i32 2
  %37 = load i8, ptr %36, align 2, !tbaa !41
  %38 = call noundef ptr @_Z13luaM_realloc_P9lua_StatePvmmh(ptr noundef %14, ptr noundef %17, i64 noundef %22, i64 noundef %34, i8 noundef zeroext %37)
  %39 = load ptr, ptr %5, align 8, !tbaa !9
  %40 = getelementptr inbounds nuw %struct.LuaTable, ptr %39, i32 0, i32 11
  store ptr %38, ptr %40, align 8, !tbaa !19
  call void @llvm.lifetime.start.p0(i64 8, ptr %7) #7
  %41 = load ptr, ptr %5, align 8, !tbaa !9
  %42 = getelementptr inbounds nuw %struct.LuaTable, ptr %41, i32 0, i32 11
  %43 = load ptr, ptr %42, align 8, !tbaa !19
  store ptr %43, ptr %7, align 8, !tbaa !11
  call void @llvm.lifetime.start.p0(i64 4, ptr %8) #7
  %44 = load ptr, ptr %5, align 8, !tbaa !9
  %45 = getelementptr inbounds nuw %struct.LuaTable, ptr %44, i32 0, i32 8
  %46 = load i32, ptr %45, align 8, !tbaa !15
  store i32 %46, ptr %8, align 4, !tbaa !13
  br label %47

47:                                               ; preds = %58, %33
  %48 = load i32, ptr %8, align 4, !tbaa !13
  %49 = load i32, ptr %6, align 4, !tbaa !13
  %50 = icmp slt i32 %48, %49
  br i1 %50, label %52, label %51

51:                                               ; preds = %47
  call void @llvm.lifetime.end.p0(i64 4, ptr %8) #7
  br label %61

52:                                               ; preds = %47
  %53 = load ptr, ptr %7, align 8, !tbaa !11
  %54 = load i32, ptr %8, align 4, !tbaa !13
  %55 = sext i32 %54 to i64
  %56 = getelementptr inbounds %struct.lua_TValue, ptr %53, i64 %55
  %57 = getelementptr inbounds nuw %struct.lua_TValue, ptr %56, i32 0, i32 2
  store i32 0, ptr %57, align 4, !tbaa !20
  br label %58

58:                                               ; preds = %52
  %59 = load i32, ptr %8, align 4, !tbaa !13
  %60 = add nsw i32 %59, 1
  store i32 %60, ptr %8, align 4, !tbaa !13
  br label %47, !llvm.loop !71

61:                                               ; preds = %51
  %62 = load i32, ptr %6, align 4, !tbaa !13
  %63 = load ptr, ptr %5, align 8, !tbaa !9
  %64 = getelementptr inbounds nuw %struct.LuaTable, ptr %63, i32 0, i32 8
  store i32 %62, ptr %64, align 8, !tbaa !15
  call void @llvm.lifetime.end.p0(i64 8, ptr %7) #7
  ret void
}

; Function Attrs: mustprogress uwtable
define hidden noundef ptr @_Z8luaH_newP9lua_Stateii(ptr noundef %0, i32 noundef %1, i32 noundef %2) #0 {
  %4 = alloca ptr, align 8
  %5 = alloca i32, align 4
  %6 = alloca i32, align 4
  %7 = alloca ptr, align 8
  store ptr %0, ptr %4, align 8, !tbaa !4
  store i32 %1, ptr %5, align 4, !tbaa !13
  store i32 %2, ptr %6, align 4, !tbaa !13
  call void @llvm.lifetime.start.p0(i64 8, ptr %7) #7
  %8 = load ptr, ptr %4, align 8, !tbaa !4
  %9 = load ptr, ptr %4, align 8, !tbaa !4
  %10 = getelementptr inbounds nuw %struct.lua_State, ptr %9, i32 0, i32 4
  %11 = load i8, ptr %10, align 4, !tbaa !43
  %12 = call noundef ptr @_Z12luaM_newgco_P9lua_Statemh(ptr noundef %8, i64 noundef 48, i8 noundef zeroext %11)
  store ptr %12, ptr %7, align 8, !tbaa !9
  %13 = load ptr, ptr %4, align 8, !tbaa !4
  %14 = getelementptr inbounds nuw %struct.lua_State, ptr %13, i32 0, i32 9
  %15 = load ptr, ptr %14, align 8, !tbaa !50
  %16 = getelementptr inbounds nuw %struct.global_State, ptr %15, i32 0, i32 3
  %17 = load i8, ptr %16, align 8, !tbaa !51
  %18 = zext i8 %17 to i32
  %19 = and i32 %18, 3
  %20 = trunc i32 %19 to i8
  %21 = load ptr, ptr %7, align 8, !tbaa !9
  %22 = getelementptr inbounds nuw %struct.LuaTable, ptr %21, i32 0, i32 1
  store i8 %20, ptr %22, align 1, !tbaa !64
  %23 = load ptr, ptr %7, align 8, !tbaa !9
  %24 = getelementptr inbounds nuw %struct.LuaTable, ptr %23, i32 0, i32 0
  store i8 6, ptr %24, align 8, !tbaa !65
  %25 = load ptr, ptr %4, align 8, !tbaa !4
  %26 = getelementptr inbounds nuw %struct.lua_State, ptr %25, i32 0, i32 4
  %27 = load i8, ptr %26, align 4, !tbaa !43
  %28 = load ptr, ptr %7, align 8, !tbaa !9
  %29 = getelementptr inbounds nuw %struct.LuaTable, ptr %28, i32 0, i32 2
  store i8 %27, ptr %29, align 2, !tbaa !41
  %30 = load ptr, ptr %7, align 8, !tbaa !9
  %31 = getelementptr inbounds nuw %struct.LuaTable, ptr %30, i32 0, i32 10
  store ptr null, ptr %31, align 8, !tbaa !66
  %32 = load ptr, ptr %7, align 8, !tbaa !9
  %33 = getelementptr inbounds nuw %struct.LuaTable, ptr %32, i32 0, i32 3
  store i8 -1, ptr %33, align 1, !tbaa !67
  %34 = load ptr, ptr %7, align 8, !tbaa !9
  %35 = getelementptr inbounds nuw %struct.LuaTable, ptr %34, i32 0, i32 11
  store ptr null, ptr %35, align 8, !tbaa !19
  %36 = load ptr, ptr %7, align 8, !tbaa !9
  %37 = getelementptr inbounds nuw %struct.LuaTable, ptr %36, i32 0, i32 8
  store i32 0, ptr %37, align 8, !tbaa !15
  %38 = load ptr, ptr %7, align 8, !tbaa !9
  %39 = getelementptr inbounds nuw %struct.LuaTable, ptr %38, i32 0, i32 9
  store i32 0, ptr %39, align 4, !tbaa !22
  %40 = load ptr, ptr %7, align 8, !tbaa !9
  %41 = getelementptr inbounds nuw %struct.LuaTable, ptr %40, i32 0, i32 6
  store i8 0, ptr %41, align 2, !tbaa !26
  %42 = load ptr, ptr %7, align 8, !tbaa !9
  %43 = getelementptr inbounds nuw %struct.LuaTable, ptr %42, i32 0, i32 4
  store i8 0, ptr %43, align 4, !tbaa !68
  %44 = load ptr, ptr %7, align 8, !tbaa !9
  %45 = getelementptr inbounds nuw %struct.LuaTable, ptr %44, i32 0, i32 5
  store i8 0, ptr %45, align 1, !tbaa !69
  %46 = load ptr, ptr %7, align 8, !tbaa !9
  %47 = getelementptr inbounds nuw %struct.LuaTable, ptr %46, i32 0, i32 7
  store i8 0, ptr %47, align 1, !tbaa !70
  %48 = load ptr, ptr %7, align 8, !tbaa !9
  %49 = getelementptr inbounds nuw %struct.LuaTable, ptr %48, i32 0, i32 12
  store ptr @luaH_dummynode, ptr %49, align 8, !tbaa !27
  %50 = load i32, ptr %5, align 4, !tbaa !13
  %51 = icmp sgt i32 %50, 0
  br i1 %51, label %52, label %56

52:                                               ; preds = %3
  %53 = load ptr, ptr %4, align 8, !tbaa !4
  %54 = load ptr, ptr %7, align 8, !tbaa !9
  %55 = load i32, ptr %5, align 4, !tbaa !13
  call void @_ZL14setarrayvectorP9lua_StateP8LuaTablei(ptr noundef %53, ptr noundef %54, i32 noundef %55)
  br label %56

56:                                               ; preds = %52, %3
  %57 = load i32, ptr %6, align 4, !tbaa !13
  %58 = icmp sgt i32 %57, 0
  br i1 %58, label %59, label %63

59:                                               ; preds = %56
  %60 = load ptr, ptr %4, align 8, !tbaa !4
  %61 = load ptr, ptr %7, align 8, !tbaa !9
  %62 = load i32, ptr %6, align 4, !tbaa !13
  call void @_ZL13setnodevectorP9lua_StateP8LuaTablei(ptr noundef %60, ptr noundef %61, i32 noundef %62)
  br label %63

63:                                               ; preds = %59, %56
  %64 = load ptr, ptr %7, align 8, !tbaa !9
  call void @llvm.lifetime.end.p0(i64 8, ptr %7) #7
  ret ptr %64
}