; Function Attrs: mustprogress uwtable
define hidden noundef ptr @_Z8luaH_newP9lua_Stateii(ptr noundef %0, i32 noundef %1, i32 noundef %2) local_unnamed_addr #0 {
  %4 = getelementptr inbounds nuw i8, ptr %0, i64 4
  %5 = load i8, ptr %4, align 4, !tbaa !37
  %6 = tail call noundef ptr @_Z12luaM_newgco_P9lua_Statemh(ptr noundef %0, i64 noundef 48, i8 noundef zeroext %5)
  %7 = getelementptr inbounds nuw i8, ptr %0, i64 24
  %8 = load ptr, ptr %7, align 8, !tbaa !45
  %9 = getelementptr inbounds nuw i8, ptr %8, i64 32
  %10 = load i8, ptr %9, align 8, !tbaa !46
  %11 = and i8 %10, 3
  %12 = getelementptr inbounds nuw i8, ptr %6, i64 1
  store i8 %11, ptr %12, align 1, !tbaa !60
  store i8 6, ptr %6, align 8, !tbaa !61
  %13 = load i8, ptr %4, align 4, !tbaa !37
  %14 = getelementptr inbounds nuw i8, ptr %6, i64 2
  store i8 %13, ptr %14, align 2, !tbaa !29
  %15 = getelementptr inbounds nuw i8, ptr %6, i64 16
  store ptr null, ptr %15, align 8, !tbaa !62
  %16 = getelementptr inbounds nuw i8, ptr %6, i64 3
  store i8 -1, ptr %16, align 1, !tbaa !63
  %17 = getelementptr inbounds nuw i8, ptr %6, i64 24
  store ptr null, ptr %17, align 8, !tbaa !20
  %18 = getelementptr inbounds nuw i8, ptr %6, i64 8
  %19 = getelementptr inbounds nuw i8, ptr %6, i64 12
  %20 = getelementptr inbounds nuw i8, ptr %6, i64 6
  %21 = getelementptr inbounds nuw i8, ptr %6, i64 4
  %22 = getelementptr inbounds nuw i8, ptr %6, i64 7
  %23 = getelementptr inbounds nuw i8, ptr %6, i64 32
  tail call void @llvm.memset.p0.i64(ptr noundef nonnull align 4 dereferenceable(12) %21, i8 0, i64 12, i1 false)
  store ptr @luaH_dummynode, ptr %23, align 8, !tbaa !17
  %24 = icmp sgt i32 %1, 0
  br i1 %24, label %25, label %36

25:                                               ; preds = %3
  %26 = icmp samesign ugt i32 %1, 67108864
  br i1 %26, label %27, label %28

27:                                               ; preds = %25
  tail call void (ptr, ptr, ...) @_Z14luaG_runerrorLP9lua_StatePKcz(ptr noundef nonnull %0, ptr noundef nonnull @.str.4) #10
  unreachable

28:                                               ; preds = %25
  %29 = zext nneg i32 %1 to i64
  %30 = shl nuw nsw i64 %29, 4
  %31 = tail call noundef ptr @_Z13luaM_realloc_P9lua_StatePvmmh(ptr noundef nonnull %0, ptr noundef null, i64 noundef 0, i64 noundef %30, i8 noundef zeroext %13)
  store ptr %31, ptr %17, align 8, !tbaa !20
  %32 = load i32, ptr %18, align 8, !tbaa !9
  %33 = icmp slt i32 %32, %1
  br i1 %33, label %.lr.ph.preheader.i, label %_ZL14setarrayvectorP9lua_StateP8LuaTablei.exit

.lr.ph.preheader.i:                               ; preds = %28
  %34 = sext i32 %32 to i64
  br label %.lr.ph.i

.lr.ph.i:                                         ; preds = %.lr.ph.i, %.lr.ph.preheader.i
  %indvars.iv.i = phi i64 [ %34, %.lr.ph.preheader.i ], [ %indvars.iv.next.i, %.lr.ph.i ]
  %35 = getelementptr inbounds %struct.lua_TValue, ptr %31, i64 %indvars.iv.i, i32 2
  store i32 0, ptr %35, align 4, !tbaa !4
  %indvars.iv.next.i = add nsw i64 %indvars.iv.i, 1
  %exitcond.not.i = icmp eq i64 %indvars.iv.next.i, %29
  br i1 %exitcond.not.i, label %_ZL14setarrayvectorP9lua_StateP8LuaTablei.exit, label %.lr.ph.i, !llvm.loop !30

_ZL14setarrayvectorP9lua_StateP8LuaTablei.exit:   ; preds = %.lr.ph.i, %28
  store i32 %1, ptr %18, align 8, !tbaa !9
  br label %36

36:                                               ; preds = %_ZL14setarrayvectorP9lua_StateP8LuaTablei.exit, %3
  %37 = icmp sgt i32 %2, 0
  br i1 %37, label %38, label %58

38:                                               ; preds = %36
  %39 = add nsw i32 %2, -1
  %40 = tail call noundef i32 @_Z9luaO_log2j(i32 noundef %39)
  %41 = add nsw i32 %40, 1
  %42 = icmp sgt i32 %40, 25
  br i1 %42, label %43, label %44

43:                                               ; preds = %38
  tail call void (ptr, ptr, ...) @_Z14luaG_runerrorLP9lua_StatePKcz(ptr noundef nonnull %0, ptr noundef nonnull @.str.4) #10
  unreachable

44:                                               ; preds = %38
  %45 = shl nuw nsw i32 1, %41
  %46 = zext nneg i32 %45 to i64
  %47 = shl nuw nsw i64 %46, 5
  %48 = load i8, ptr %14, align 2, !tbaa !29
  %49 = tail call noundef ptr @_Z9luaM_new_P9lua_Statemh(ptr noundef nonnull %0, i64 noundef %47, i8 noundef zeroext %48)
  store ptr %49, ptr %23, align 8, !tbaa !17
  br label %50

50:                                               ; preds = %50, %44
  %indvars.iv.i26 = phi i64 [ 0, %44 ], [ %indvars.iv.next.i27, %50 ]
  %51 = load ptr, ptr %23, align 8, !tbaa !17
  %52 = getelementptr inbounds nuw %struct.LuaNode, ptr %51, i64 %indvars.iv.i26
  %53 = getelementptr inbounds nuw i8, ptr %52, i64 28
  store i32 0, ptr %53, align 4
  %54 = getelementptr inbounds nuw i8, ptr %52, i64 12
  store i32 0, ptr %54, align 4, !tbaa !24
  %indvars.iv.next.i27 = add nuw nsw i64 %indvars.iv.i26, 1
  %exitcond.not.i28 = icmp eq i64 %indvars.iv.next.i27, %46
  br i1 %exitcond.not.i28, label %_ZL13setnodevectorP9lua_StateP8LuaTablei.exit, label %50, !llvm.loop !31

_ZL13setnodevectorP9lua_StateP8LuaTablei.exit:    ; preds = %50
  %55 = trunc i32 %41 to i8
  store i8 %55, ptr %20, align 2, !tbaa !22
  %notmask.i = shl nsw i32 -1, %41
  %56 = trunc i32 %notmask.i to i8
  %57 = xor i8 %56, -1
  store i8 %57, ptr %22, align 1, !tbaa !32
  store i32 %45, ptr %19, align 4, !tbaa !16
  br label %58

58:                                               ; preds = %_ZL13setnodevectorP9lua_StateP8LuaTablei.exit, %36
  ret ptr %6
}